target datalayout = "e-m:e-p270:32:32-p271:32:32-p272:64:64-i64:64-i128:128-f80:128-n8:16:32:64-S128"
target triple = "x86_64-pc-linux-gnu"

%struct.node_t = type { ptr }

; Function Attrs: mustprogress nounwind uwtable
define noundef i32 @_ZN6node_t13prefix_lengthEv(ptr noundef nonnull align 8 dereferenceable(8) %0) #0 align 2 {
  %2 = alloca ptr, align 8
  %3 = alloca i32, align 4
  store ptr %0, ptr %2, align 8, !tbaa !3
  %4 = load ptr, ptr %2, align 8
  call void @llvm.lifetime.start.p0(i64 4, ptr %3) #17
  %5 = getelementptr inbounds nuw %struct.node_t, ptr %4, i32 0, i32 0
  %6 = load ptr, ptr %5, align 8, !tbaa !10
  %7 = getelementptr inbounds nuw i8, ptr %6, i64 4
  call void @llvm.memcpy.p0.p0.i64(ptr align 4 %3, ptr align 1 %7, i64 4, i1 false)
  %8 = load i32, ptr %3, align 4, !tbaa !12
  call void @llvm.lifetime.end.p0(i64 4, ptr %3) #17
  ret i32 %8
}

; Function Attrs: mustprogress nounwind uwtable
define noundef ptr @_ZN6node_t6prefixEv(ptr noundef nonnull align 8 dereferenceable(8) %0) #0 align 2 {
  %2 = alloca ptr, align 8
  store ptr %0, ptr %2, align 8, !tbaa !3
  %3 = load ptr, ptr %2, align 8
  %4 = getelementptr inbounds nuw %struct.node_t, ptr %3, i32 0, i32 0
  %5 = load ptr, ptr %4, align 8, !tbaa !10
  %6 = getelementptr inbounds nuw i8, ptr %5, i64 12
  ret ptr %6
}

; Function Attrs: mustprogress nounwind uwtable
define noundef i32 @_ZN6node_t9edgecountEv(ptr noundef nonnull align 8 dereferenceable(8) %0) #0 align 2 {
  %2 = alloca ptr, align 8
  %3 = alloca i32, align 4
  store ptr %0, ptr %2, align 8, !tbaa !3
  %4 = load ptr, ptr %2, align 8
  call void @llvm.lifetime.start.p0(i64 4, ptr %3) #17
  %5 = getelementptr inbounds nuw %struct.node_t, ptr %4, i32 0, i32 0
  %6 = load ptr, ptr %5, align 8, !tbaa !10
  %7 = getelementptr inbounds nuw i8, ptr %6, i64 8
  call void @llvm.memcpy.p0.p0.i64(ptr align 4 %3, ptr align 1 %7, i64 4, i1 false)
  %8 = load i32, ptr %3, align 4, !tbaa !12
  call void @llvm.lifetime.end.p0(i64 4, ptr %3) #17
  ret i32 %8
}

; Function Attrs: mustprogress nounwind uwtable
define noundef ptr @_ZN6node_t11first_bytesEv(ptr noundef nonnull align 8 dereferenceable(8) %0) #0 align 2 {
  %2 = alloca ptr, align 8
  store ptr %0, ptr %2, align 8, !tbaa !3
  %3 = load ptr, ptr %2, align 8
  %4 = call noundef ptr @_ZN6node_t6prefixEv(ptr noundef nonnull align 8 dereferenceable(8) %3)
  %5 = call noundef i32 @_ZN6node_t13prefix_lengthEv(ptr noundef nonnull align 8 dereferenceable(8) %3)
  %6 = zext i32 %5 to i64
  %7 = getelementptr inbounds nuw i8, ptr %4, i64 %6
  ret ptr %7
}

; Function Attrs: mustprogress nounwind uwtable
define void @_ZN6node_t15set_first_bytesEPKh(ptr noundef nonnull align 8 dereferenceable(8) %0, ptr noundef %1) #0 align 2 {
  %3 = alloca ptr, align 8
  %4 = alloca ptr, align 8
  store ptr %0, ptr %3, align 8, !tbaa !3
  store ptr %1, ptr %4, align 8, !tbaa !8
  %5 = load ptr, ptr %3, align 8
  %6 = call noundef ptr @_ZN6node_t11first_bytesEv(ptr noundef nonnull align 8 dereferenceable(8) %5)
  %7 = load ptr, ptr %4, align 8, !tbaa !8
  %8 = call noundef i32 @_ZN6node_t9edgecountEv(ptr noundef nonnull align 8 dereferenceable(8) %5)
  %9 = zext i32 %8 to i64
  call void @llvm.memcpy.p0.p0.i64(ptr align 1 %6, ptr align 1 %7, i64 %9, i1 false)
  ret void
}